EXPORTS 
	??$?0$$V@?$_Compressed_pair@V?$allocator@N@std@@V?$_Vector_val@U?$_Simple_types@N@std@@@2@$00@std@@QEAA@U_Zero_then_variadic_args_t@1@@Z
	??$?0$$V@?$_Compressed_pair@V?$allocator@V?$vector@NV?$allocator@N@std@@@std@@@std@@V?$_Vector_val@U?$_Simple_types@V?$vector@NV?$allocator@N@std@@@std@@@std@@@2@$00@std@@QEAA@U_Zero_then_variadic_args_t@1@@Z
	??$?0AEBV?$allocator@N@std@@$$V@?$_Compressed_pair@V?$allocator@N@std@@V?$_Vector_val@U?$_Simple_types@N@std@@@2@$00@std@@QEAA@U_One_then_variadic_args_t@1@AEBV?$allocator@N@1@@Z
	??$?0AEBV?$allocator@N@std@@X@?$_Vector_alloc@U?$_Vec_base_types@NV?$allocator@N@std@@@std@@@std@@QEAA@AEBV?$allocator@N@1@@Z
	??$?0N@?$allocator@U_Container_proxy@std@@@std@@QEAA@AEBV?$allocator@N@1@@Z
	??$?0U?$integral_constant@_N$00@std@@@_Unused_parameter@std@@QEAA@$$QEAU?$integral_constant@_N$00@1@@Z
	??$?0V?$allocator@N@std@@$$V@?$_Compressed_pair@V?$allocator@N@std@@V?$_Vector_val@U?$_Simple_types@N@std@@@2@$00@std@@QEAA@U_One_then_variadic_args_t@1@$$QEAV?$allocator@N@1@@Z
	??$?0V?$allocator@N@std@@X@?$_Vector_alloc@U?$_Vec_base_types@NV?$allocator@N@std@@@std@@@std@@QEAA@$$QEAV?$allocator@N@1@@Z
	??$?0V?$allocator@V?$vector@NV?$allocator@N@std@@@std@@@std@@$$V@?$_Compressed_pair@V?$allocator@V?$vector@NV?$allocator@N@std@@@std@@@std@@V?$_Vector_val@U?$_Simple_types@V?$vector@NV?$allocator@N@std@@@std@@@std@@@2@$00@std@@QEAA@U_One_then_variadic_args_t@1@$$QEAV?$allocator@V?$vector@NV?$allocator@N@std@@@std@@@1@@Z
	??$?0V?$allocator@V?$vector@NV?$allocator@N@std@@@std@@@std@@X@?$_Vector_alloc@U?$_Vec_base_types@V?$vector@NV?$allocator@N@std@@@std@@V?$allocator@V?$vector@NV?$allocator@N@std@@@std@@@2@@std@@@std@@QEAA@$$QEAV?$allocator@V?$vector@NV?$allocator@N@std@@@std@@@1@@Z
	??$?0V?$vector@NV?$allocator@N@std@@@std@@@?$allocator@U_Container_proxy@std@@@std@@QEAA@AEBV?$allocator@V?$vector@NV?$allocator@N@std@@@std@@@1@@Z
	??$?6U?$char_traits@D@std@@@std@@YAAEAV?$basic_ostream@DU?$char_traits@D@std@@@0@AEAV10@D@Z
	??$_Advance1@PEAN_J@std@@YAXAEAPEAN_JUrandom_access_iterator_tag@0@@Z
	??$_Advance1@PEAV?$vector@NV?$allocator@N@std@@@std@@_J@std@@YAXAEAPEAV?$vector@NV?$allocator@N@std@@@0@_JUrandom_access_iterator_tag@0@@Z
	??$_Assign_range@PEAN@?$vector@NV?$allocator@N@std@@@std@@AEAAXPEAN0Uforward_iterator_tag@1@@Z
	??$_Assign_range@PEAV?$vector@NV?$allocator@N@std@@@std@@@?$vector@V?$vector@NV?$allocator@N@std@@@std@@V?$allocator@V?$vector@NV?$allocator@N@std@@@std@@@2@@std@@AEAAXPEAV?$vector@NV?$allocator@N@std@@@1@0Uforward_iterator_tag@1@@Z
	??$_Convert_size@_K@std@@YA_K_K@Z
	??$_Copy_memmove@PEANPEAN@std@@YAPEANPEAN00@Z
	??$_Copy_unchecked1@PEANPEAN@std@@YAPEANPEAN00U_Trivially_copyable_ptr_iterator_tag@0@@Z
	??$_Copy_unchecked1@PEAV?$vector@NV?$allocator@N@std@@@std@@PEAV12@@std@@YAPEAV?$vector@NV?$allocator@N@std@@@0@PEAV10@00U_General_ptr_iterator_tag@0@@Z
	??$_Copy_unchecked@PEANPEAN@std@@YAPEANPEAN00@Z
	??$_Copy_unchecked@PEAV?$vector@NV?$allocator@N@std@@@std@@PEAV12@@std@@YAPEAV?$vector@NV?$allocator@N@std@@@0@PEAV10@00@Z
	??$_Deallocate_plain@V?$allocator@U_Container_proxy@std@@@std@@$0A@@std@@YAXAEAV?$allocator@U_Container_proxy@std@@@0@QEAU_Container_proxy@0@@Z
	??$_Debug_range2@PEAN@std@@YAXPEAN0PEB_WIUrandom_access_iterator_tag@0@@Z
	??$_Debug_range2@PEAV?$vector@NV?$allocator@N@std@@@std@@@std@@YAXPEAV?$vector@NV?$allocator@N@std@@@0@0PEB_WIUrandom_access_iterator_tag@0@@Z
	??$_Debug_range@PEAN@std@@YAXPEAN0PEB_WI@Z
	??$_Debug_range@PEAV?$vector@NV?$allocator@N@std@@@std@@@std@@YAXPEAV?$vector@NV?$allocator@N@std@@@0@0PEB_WI@Z
	??$_Destroy_range1@V?$allocator@N@std@@@std@@YAXPEAN0AEAV?$allocator@N@0@U?$integral_constant@_N$00@0@@Z
	??$_Destroy_range1@V?$allocator@V?$vector@NV?$allocator@N@std@@@std@@@std@@@std@@YAXPEAV?$vector@NV?$allocator@N@std@@@0@0AEAV?$allocator@V?$vector@NV?$allocator@N@std@@@std@@@0@U?$integral_constant@_N$0A@@0@@Z
	??$_Destroy_range@V?$allocator@N@std@@@std@@YAXPEAN0AEAV?$allocator@N@0@@Z
	??$_Destroy_range@V?$allocator@V?$vector@NV?$allocator@N@std@@@std@@@std@@@std@@YAXPEAV?$vector@NV?$allocator@N@std@@@0@0AEAV?$allocator@V?$vector@NV?$allocator@N@std@@@std@@@0@@Z
	??$_Distance1@PEAN@std@@YA_JPEAN0Urandom_access_iterator_tag@0@@Z
	??$_Distance1@PEAV?$vector@NV?$allocator@N@std@@@std@@@std@@YA_JPEAV?$vector@NV?$allocator@N@std@@@0@0Urandom_access_iterator_tag@0@@Z
	??$_Emplace_back_with_unused_capacity@AEBN@?$vector@NV?$allocator@N@std@@@std@@AEAAXAEBN@Z
	??$_Emplace_back_with_unused_capacity@V?$vector@NV?$allocator@N@std@@@std@@@?$vector@V?$vector@NV?$allocator@N@std@@@std@@V?$allocator@V?$vector@NV?$allocator@N@std@@@std@@@2@@std@@AEAAX$$QEAV?$vector@NV?$allocator@N@std@@@1@@Z
	??$_Min_value@_K@std@@YAAEB_KAEB_K0@Z
	??$_Pocca@V?$allocator@N@std@@@std@@YAXAEAV?$allocator@N@0@AEBV10@@Z
	??$_Pocca@V?$allocator@N@std@@@std@@YAXAEAV?$allocator@N@0@AEBV10@U?$integral_constant@_N$0A@@0@@Z
	??$_Pocca@V?$allocator@V?$vector@NV?$allocator@N@std@@@std@@@std@@@std@@YAXAEAV?$allocator@V?$vector@NV?$allocator@N@std@@@std@@@0@AEBV10@@Z
	??$_Pocca@V?$allocator@V?$vector@NV?$allocator@N@std@@@std@@@std@@@std@@YAXAEAV?$allocator@V?$vector@NV?$allocator@N@std@@@std@@@0@AEBV10@U?$integral_constant@_N$0A@@0@@Z
	??$_Ptr_copy_cat@NN@std@@YA?AU_Really_trivial_ptr_iterator_tag@0@AEBQEAN0@Z
	??$_Ptr_copy_cat@V?$vector@NV?$allocator@N@std@@@std@@V12@@std@@YA?AU_General_ptr_iterator_tag@0@AEBQEAV?$vector@NV?$allocator@N@std@@@0@0@Z
	??$_Ptr_move_cat@NN@std@@YA?AU_Really_trivial_ptr_iterator_tag@0@AEBQEAN0@Z
	??$_Ptr_move_cat@V?$vector@NV?$allocator@N@std@@@std@@V12@@std@@YA?AU_General_ptr_iterator_tag@0@AEBQEAV?$vector@NV?$allocator@N@std@@@0@0@Z
	??$_Rechecked@PEANPEAN@std@@YAAEAPEANAEAPEANPEAN@Z
	??$_Rechecked@PEAV?$vector@NV?$allocator@N@std@@@std@@PEAV12@@std@@YAAEAPEAV?$vector@NV?$allocator@N@std@@@0@AEAPEAV10@PEAV10@@Z
	??$_Ucopy@PEAN@?$vector@NV?$allocator@N@std@@@std@@AEAAPEANPEAN00@Z
	??$_Ucopy@PEAV?$vector@NV?$allocator@N@std@@@std@@@?$vector@V?$vector@NV?$allocator@N@std@@@std@@V?$allocator@V?$vector@NV?$allocator@N@std@@@std@@@2@@std@@AEAAPEAV?$vector@NV?$allocator@N@std@@@1@PEAV21@00@Z
	??$_Unchecked@PEAN@std@@YAPEANPEAN@Z
	??$_Unchecked@PEAV?$vector@NV?$allocator@N@std@@@std@@@std@@YAPEAV?$vector@NV?$allocator@N@std@@@0@PEAV10@@Z
	??$_Unfancy@N@std@@YAPEANPEAN@Z
	??$_Unfancy@U_Container_proxy@std@@@std@@YAPEAU_Container_proxy@0@PEAU10@@Z
	??$_Unfancy@V?$vector@NV?$allocator@N@std@@@std@@@std@@YAPEAV?$vector@NV?$allocator@N@std@@@0@PEAV10@@Z
	??$_Uninit_alloc_fill_n1@PEAV?$vector@NV?$allocator@N@std@@@std@@_KV?$allocator@V?$vector@NV?$allocator@N@std@@@std@@@2@@std@@YAPEAV?$vector@NV?$allocator@N@std@@@0@PEAV10@_KAEBV10@AEAV?$allocator@V?$vector@NV?$allocator@N@std@@@std@@@0@U?$integral_constant@_N$0A@@0@@Z
	??$_Uninitialized_copy@PEANPEANV?$allocator@N@std@@@std@@YAPEANPEAN00AEAV?$allocator@N@0@@Z
	??$_Uninitialized_copy@PEAV?$vector@NV?$allocator@N@std@@@std@@PEAV12@V?$allocator@V?$vector@NV?$allocator@N@std@@@std@@@2@@std@@YAPEAV?$vector@NV?$allocator@N@std@@@0@PEAV10@00AEAV?$allocator@V?$vector@NV?$allocator@N@std@@@std@@@0@@Z
	??$_Uninitialized_copy_al_unchecked@NNV?$allocator@N@std@@@std@@YAPEANPEAN00AEAV?$allocator@N@0@U_Really_trivial_ptr_iterator_tag@0@U?$integral_constant@_N$00@0@@Z
	??$_Uninitialized_copy_al_unchecked@PEAV?$vector@NV?$allocator@N@std@@@std@@PEAV12@V?$allocator@V?$vector@NV?$allocator@N@std@@@std@@@2@@std@@YAPEAV?$vector@NV?$allocator@N@std@@@0@PEAV10@00AEAV?$allocator@V?$vector@NV?$allocator@N@std@@@std@@@0@U_General_ptr_iterator_tag@0@U_Unused_parameter@0@@Z
	??$_Uninitialized_fill_n@PEAV?$vector@NV?$allocator@N@std@@@std@@_KV?$allocator@V?$vector@NV?$allocator@N@std@@@std@@@2@@std@@YAPEAV?$vector@NV?$allocator@N@std@@@0@PEAV10@_KAEBV10@AEAV?$allocator@V?$vector@NV?$allocator@N@std@@@std@@@0@@Z
	??$_Uninitialized_move@PEANPEANV?$allocator@N@std@@@std@@YAPEANPEAN00AEAV?$allocator@N@0@@Z
	??$_Uninitialized_move@PEAV?$vector@NV?$allocator@N@std@@@std@@PEAV12@V?$allocator@V?$vector@NV?$allocator@N@std@@@std@@@2@@std@@YAPEAV?$vector@NV?$allocator@N@std@@@0@PEAV10@00AEAV?$allocator@V?$vector@NV?$allocator@N@std@@@std@@@0@@Z
	??$_Uninitialized_move_al_unchecked@NNV?$allocator@N@std@@@std@@YAPEANPEAN00AEAV?$allocator@N@0@U_Really_trivial_ptr_iterator_tag@0@U?$integral_constant@_N$00@0@@Z
	??$_Uninitialized_move_al_unchecked@PEAV?$vector@NV?$allocator@N@std@@@std@@PEAV12@V?$allocator@V?$vector@NV?$allocator@N@std@@@std@@@2@@std@@YAPEAV?$vector@NV?$allocator@N@std@@@0@PEAV10@00AEAV?$allocator@V?$vector@NV?$allocator@N@std@@@std@@@0@U_General_ptr_iterator_tag@0@U_Unused_parameter@0@@Z
	??$_Uninitialized_value_construct_n1@PEAN_KV?$allocator@N@std@@@std@@YAPEANPEAN_KAEAV?$allocator@N@0@U?$integral_constant@_N$00@0@@Z
	??$_Uninitialized_value_construct_n@PEAN_KV?$allocator@N@std@@@std@@YAPEANPEAN_KAEAV?$allocator@N@0@@Z
	??$_Zero_range@PEAN@std@@YAPEANPEAN0@Z
	??$addressof@$$CBV?$vector@NV?$allocator@N@std@@@std@@@std@@YAPEBV?$vector@NV?$allocator@N@std@@@0@AEBV10@@Z
	??$addressof@$$CBV?$vector@V?$vector@NV?$allocator@N@std@@@std@@V?$allocator@V?$vector@NV?$allocator@N@std@@@std@@@2@@std@@@std@@YAPEBV?$vector@V?$vector@NV?$allocator@N@std@@@std@@V?$allocator@V?$vector@NV?$allocator@N@std@@@std@@@2@@0@AEBV10@@Z
	??$addressof@V?$_Vector_val@U?$_Simple_types@N@std@@@std@@@std@@YAPEAV?$_Vector_val@U?$_Simple_types@N@std@@@0@AEAV10@@Z
	??$addressof@V?$_Vector_val@U?$_Simple_types@V?$vector@NV?$allocator@N@std@@@std@@@std@@@std@@@std@@YAPEAV?$_Vector_val@U?$_Simple_types@V?$vector@NV?$allocator@N@std@@@std@@@std@@@0@AEAV10@@Z
	??$advance@PEAN_J@std@@YAXAEAPEAN_J@Z
	??$advance@PEAV?$vector@NV?$allocator@N@std@@@std@@_J@std@@YAXAEAPEAV?$vector@NV?$allocator@N@std@@@0@_J@Z
	??$assign@PEANX@?$vector@NV?$allocator@N@std@@@std@@QEAAXPEAN0@Z
	??$assign@PEAV?$vector@NV?$allocator@N@std@@@std@@X@?$vector@V?$vector@NV?$allocator@N@std@@@std@@V?$allocator@V?$vector@NV?$allocator@N@std@@@std@@@2@@std@@QEAAXPEAV?$vector@NV?$allocator@N@std@@@1@0@Z
	??$construct@NAEBN@?$_Default_allocator_traits@V?$allocator@N@std@@@std@@SAXAEAV?$allocator@N@1@QEANAEBN@Z
	??$construct@U_Container_proxy@std@@U12@@?$_Default_allocator_traits@V?$allocator@U_Container_proxy@std@@@std@@@std@@SAXAEAV?$allocator@U_Container_proxy@std@@@1@QEAU_Container_proxy@1@$$QEAU31@@Z
	??$construct@V?$vector@NV?$allocator@N@std@@@std@@AEAV12@@?$_Default_allocator_traits@V?$allocator@V?$vector@NV?$allocator@N@std@@@std@@@std@@@std@@SAXAEAV?$allocator@V?$vector@NV?$allocator@N@std@@@std@@@1@QEAV?$vector@NV?$allocator@N@std@@@1@AEAV31@@Z
	??$construct@V?$vector@NV?$allocator@N@std@@@std@@AEBV12@@?$_Default_allocator_traits@V?$allocator@V?$vector@NV?$allocator@N@std@@@std@@@std@@@std@@SAXAEAV?$allocator@V?$vector@NV?$allocator@N@std@@@std@@@1@QEAV?$vector@NV?$allocator@N@std@@@1@AEBV31@@Z
	??$construct@V?$vector@NV?$allocator@N@std@@@std@@V12@@?$_Default_allocator_traits@V?$allocator@V?$vector@NV?$allocator@N@std@@@std@@@std@@@std@@SAXAEAV?$allocator@V?$vector@NV?$allocator@N@std@@@std@@@1@QEAV?$vector@NV?$allocator@N@std@@@1@$$QEAV31@@Z
	??$destroy@N@?$_Default_allocator_traits@V?$allocator@N@std@@@std@@SAXAEAV?$allocator@N@1@QEAN@Z
	??$destroy@U_Container_proxy@std@@@?$_Default_allocator_traits@V?$allocator@U_Container_proxy@std@@@std@@@std@@SAXAEAV?$allocator@U_Container_proxy@std@@@1@QEAU_Container_proxy@1@@Z
	??$destroy@V?$vector@NV?$allocator@N@std@@@std@@@?$_Default_allocator_traits@V?$allocator@V?$vector@NV?$allocator@N@std@@@std@@@std@@@std@@SAXAEAV?$allocator@V?$vector@NV?$allocator@N@std@@@std@@@1@QEAV?$vector@NV?$allocator@N@std@@@1@@Z
	??$distance@PEAN@std@@YA_JPEAN0@Z
	??$distance@PEAV?$vector@NV?$allocator@N@std@@@std@@@std@@YA_JPEAV?$vector@NV?$allocator@N@std@@@0@0@Z
	??$emplace_back@AEBN@?$vector@NV?$allocator@N@std@@@std@@QEAAXAEBN@Z
	??$emplace_back@V?$vector@NV?$allocator@N@std@@@std@@@?$vector@V?$vector@NV?$allocator@N@std@@@std@@V?$allocator@V?$vector@NV?$allocator@N@std@@@std@@@2@@std@@QEAAX$$QEAV?$vector@NV?$allocator@N@std@@@1@@Z
	??$endl@DU?$char_traits@D@std@@@std@@YAAEAV?$basic_ostream@DU?$char_traits@D@std@@@0@AEAV10@@Z
	??$forward@AEAV?$vector@NV?$allocator@N@std@@@std@@@std@@YAAEAV?$vector@NV?$allocator@N@std@@@0@AEAV10@@Z
	??$forward@AEBN@std@@YAAEBNAEBN@Z
	??$forward@AEBV?$allocator@N@std@@@std@@YAAEBV?$allocator@N@0@AEBV10@@Z
	??$forward@AEBV?$vector@NV?$allocator@N@std@@@std@@@std@@YAAEBV?$vector@NV?$allocator@N@std@@@0@AEBV10@@Z
	??$forward@U_Container_proxy@std@@@std@@YA$$QEAU_Container_proxy@0@AEAU10@@Z
	??$forward@V?$allocator@N@std@@@std@@YA$$QEAV?$allocator@N@0@AEAV10@@Z
	??$forward@V?$allocator@V?$vector@NV?$allocator@N@std@@@std@@@std@@@std@@YA$$QEAV?$allocator@V?$vector@NV?$allocator@N@std@@@std@@@0@AEAV10@@Z
	??$forward@V?$vector@NV?$allocator@N@std@@@std@@@std@@YA$$QEAV?$vector@NV?$allocator@N@std@@@0@AEAV10@@Z
	??$move@AEAV?$allocator@N@std@@@std@@YA$$QEAV?$allocator@N@0@AEAV10@@Z
	??$move@AEAV?$allocator@V?$vector@NV?$allocator@N@std@@@std@@@std@@@std@@YA$$QEAV?$allocator@V?$vector@NV?$allocator@N@std@@@std@@@0@AEAV10@@Z
	??$move@AEAV?$vector@NV?$allocator@N@std@@@std@@@std@@YA$$QEAV?$vector@NV?$allocator@N@std@@@0@AEAV10@@Z
	??$move@AEAV?$vector@V?$vector@NV?$allocator@N@std@@@std@@V?$allocator@V?$vector@NV?$allocator@N@std@@@std@@@2@@std@@@std@@YA$$QEAV?$vector@V?$vector@NV?$allocator@N@std@@@std@@V?$allocator@V?$vector@NV?$allocator@N@std@@@std@@@2@@0@AEAV10@@Z
	??$next@PEAN@std@@YAPEANPEAN_J@Z
	??$next@PEAV?$vector@NV?$allocator@N@std@@@std@@@std@@YAPEAV?$vector@NV?$allocator@N@std@@@0@PEAV10@_J@Z
	??$pow@HHX@@YANHH@Z
	??0?$_Vector_alloc@U?$_Vec_base_types@NV?$allocator@N@std@@@std@@@std@@QEAA@XZ
	??0?$_Vector_alloc@U?$_Vec_base_types@V?$vector@NV?$allocator@N@std@@@std@@V?$allocator@V?$vector@NV?$allocator@N@std@@@std@@@2@@std@@@std@@QEAA@XZ
	??0?$_Vector_val@U?$_Simple_types@N@std@@@std@@QEAA@XZ
	??0?$_Vector_val@U?$_Simple_types@V?$vector@NV?$allocator@N@std@@@std@@@std@@@std@@QEAA@XZ
	??0?$allocator@N@std@@QEAA@XZ
	??0?$allocator@V?$vector@NV?$allocator@N@std@@@std@@@std@@QEAA@XZ
	??0?$vector@NV?$allocator@N@std@@@std@@QEAA@$$QEAV01@@Z
	??0?$vector@NV?$allocator@N@std@@@std@@QEAA@AEBV01@@Z
	??0?$vector@NV?$allocator@N@std@@@std@@QEAA@XZ
	??0?$vector@NV?$allocator@N@std@@@std@@QEAA@_KAEBV?$allocator@N@1@@Z
	??0?$vector@V?$vector@NV?$allocator@N@std@@@std@@V?$allocator@V?$vector@NV?$allocator@N@std@@@std@@@2@@std@@QEAA@$$QEAV01@@Z
	??0?$vector@V?$vector@NV?$allocator@N@std@@@std@@V?$allocator@V?$vector@NV?$allocator@N@std@@@std@@@2@@std@@QEAA@XZ
	??0Matrix@@QEAA@$$QEAV0@@Z
	??0Matrix@@QEAA@XZ
	??0_Container_base12@std@@QEAA@XZ
	??0_Container_proxy@std@@QEAA@XZ
	??0_Sentry_base@?$basic_ostream@DU?$char_traits@D@std@@@std@@QEAA@AEAV12@@Z
	??0sentry@?$basic_ostream@DU?$char_traits@D@std@@@std@@QEAA@AEAV12@@Z
	??1?$_Compressed_pair@V?$allocator@N@std@@V?$_Vector_val@U?$_Simple_types@N@std@@@2@$00@std@@QEAA@XZ
	??1?$_Compressed_pair@V?$allocator@V?$vector@NV?$allocator@N@std@@@std@@@std@@V?$_Vector_val@U?$_Simple_types@V?$vector@NV?$allocator@N@std@@@std@@@std@@@2@$00@std@@QEAA@XZ
	??1?$_Vector_alloc@U?$_Vec_base_types@NV?$allocator@N@std@@@std@@@std@@QEAA@XZ
	??1?$_Vector_alloc@U?$_Vec_base_types@V?$vector@NV?$allocator@N@std@@@std@@V?$allocator@V?$vector@NV?$allocator@N@std@@@std@@@2@@std@@@std@@QEAA@XZ
	??1?$_Vector_val@U?$_Simple_types@N@std@@@std@@QEAA@XZ
	??1?$_Vector_val@U?$_Simple_types@V?$vector@NV?$allocator@N@std@@@std@@@std@@@std@@QEAA@XZ
	??1?$vector@NV?$allocator@N@std@@@std@@QEAA@XZ
	??1?$vector@V?$vector@NV?$allocator@N@std@@@std@@V?$allocator@V?$vector@NV?$allocator@N@std@@@std@@@2@@std@@QEAA@XZ
	??1Matrix@@QEAA@XZ
	??1_Container_base12@std@@QEAA@XZ
	??1_Sentry_base@?$basic_ostream@DU?$char_traits@D@std@@@std@@QEAA@XZ
	??1sentry@?$basic_ostream@DU?$char_traits@D@std@@@std@@QEAA@XZ
	??2@YAPEAX_KPEAX@Z
	??3@YAXPEAX0@Z
	??4?$vector@NV?$allocator@N@std@@@std@@QEAAAEAV01@AEBV01@@Z
	??4?$vector@V?$vector@NV?$allocator@N@std@@@std@@V?$allocator@V?$vector@NV?$allocator@N@std@@@std@@@2@@std@@QEAAAEAV01@AEBV01@@Z
	??6@YAAEAV?$basic_ostream@DU?$char_traits@D@std@@@std@@AEAV01@AEBVMatrix@@@Z
	??Bsentry@?$basic_ostream@DU?$char_traits@D@std@@@std@@QEBA_NXZ
	??D@YA?AVMatrix@@AEBV0@0@Z
	??K@YA?AVMatrix@@AEBV0@N@Z
	?Adjugate@Matrix@@AEBA?AV1@XZ
	?AssertIsNonEmpty@Matrix@@AEBAXXZ
	?AssertIsNonRagged@Matrix@@AEBAXXZ
	?AssertIsSquare@Matrix@@AEBAXXZ
	?Cofactor@Matrix@@AEBA?AV1@XZ
	?Determinant@Matrix@@CANAEBV1@@Z
	?Determinant@Matrix@@QEBANXZ
	?Get@Matrix@@QEAAAEAV?$vector@V?$vector@NV?$allocator@N@std@@@std@@V?$allocator@V?$vector@NV?$allocator@N@std@@@std@@@2@@std@@XZ
	?Inverse@Matrix@@QEBA?AV1@XZ
	?Minor@Matrix@@AEBA?AV1@XZ
	?Strip@Matrix@@QEBA?AV1@HH@Z
	?Transpose@Matrix@@QEBA?AV1@XZ
	?_Alloc_proxy@?$_Vector_alloc@U?$_Vec_base_types@NV?$allocator@N@std@@@std@@@std@@QEAAXXZ
	?_Alloc_proxy@?$_Vector_alloc@U?$_Vec_base_types@V?$vector@NV?$allocator@N@std@@@std@@V?$allocator@V?$vector@NV?$allocator@N@std@@@std@@@2@@std@@@std@@QEAAXXZ
	?_Allocate@std@@YAPEAX_K0_N@Z
	?_Buy@?$vector@NV?$allocator@N@std@@@std@@AEAA_N_K@Z
	?_Buy@?$vector@V?$vector@NV?$allocator@N@std@@@std@@V?$allocator@V?$vector@NV?$allocator@N@std@@@std@@@2@@std@@AEAA_N_K@Z
	?_Calculate_growth@?$vector@NV?$allocator@N@std@@@std@@AEBA_K_K@Z
	?_Calculate_growth@?$vector@V?$vector@NV?$allocator@N@std@@@std@@V?$allocator@V?$vector@NV?$allocator@N@std@@@std@@@2@@std@@AEBA_K_K@Z
	?_Change_array@?$vector@NV?$allocator@N@std@@@std@@AEAAXQEAN_K1@Z
	?_Change_array@?$vector@V?$vector@NV?$allocator@N@std@@@std@@V?$allocator@V?$vector@NV?$allocator@N@std@@@std@@@2@@std@@AEAAXQEAV?$vector@NV?$allocator@N@std@@@2@_K1@Z
	?_Clrcont@_Iterator_base12@std@@QEAAXXZ
	?_Copy_alloc@?$_Vector_alloc@U?$_Vec_base_types@NV?$allocator@N@std@@@std@@@std@@QEAAXAEBV?$allocator@N@2@@Z
	?_Copy_alloc@?$_Vector_alloc@U?$_Vec_base_types@V?$vector@NV?$allocator@N@std@@@std@@V?$allocator@V?$vector@NV?$allocator@N@std@@@std@@@2@@std@@@std@@QEAAXAEBV?$allocator@V?$vector@NV?$allocator@N@std@@@std@@@2@@Z
	?_Deallocate@std@@YAXPEAX_K1@Z
	?_Destroy@?$vector@NV?$allocator@N@std@@@std@@AEAAXPEAN0@Z
	?_Destroy@?$vector@V?$vector@NV?$allocator@N@std@@@std@@V?$allocator@V?$vector@NV?$allocator@N@std@@@std@@@2@@std@@AEAAXPEAV?$vector@NV?$allocator@N@std@@@2@0@Z
	?_Free_proxy@?$_Vector_alloc@U?$_Vec_base_types@NV?$allocator@N@std@@@std@@@std@@QEAAXXZ
	?_Free_proxy@?$_Vector_alloc@U?$_Vec_base_types@V?$vector@NV?$allocator@N@std@@@std@@V?$allocator@V?$vector@NV?$allocator@N@std@@@std@@@2@@std@@@std@@QEAAXXZ
	?_Get_data@?$_Vector_alloc@U?$_Vec_base_types@NV?$allocator@N@std@@@std@@@std@@QEAAAEAV?$_Vector_val@U?$_Simple_types@N@std@@@2@XZ
	?_Get_data@?$_Vector_alloc@U?$_Vec_base_types@NV?$allocator@N@std@@@std@@@std@@QEBAAEBV?$_Vector_val@U?$_Simple_types@N@std@@@2@XZ
	?_Get_data@?$_Vector_alloc@U?$_Vec_base_types@V?$vector@NV?$allocator@N@std@@@std@@V?$allocator@V?$vector@NV?$allocator@N@std@@@std@@@2@@std@@@std@@QEAAAEAV?$_Vector_val@U?$_Simple_types@V?$vector@NV?$allocator@N@std@@@std@@@std@@@2@XZ
	?_Get_data@?$_Vector_alloc@U?$_Vec_base_types@V?$vector@NV?$allocator@N@std@@@std@@V?$allocator@V?$vector@NV?$allocator@N@std@@@std@@@2@@std@@@std@@QEBAAEBV?$_Vector_val@U?$_Simple_types@V?$vector@NV?$allocator@N@std@@@std@@@std@@@2@XZ
	?_Get_first@?$_Compressed_pair@V?$allocator@N@std@@V?$_Vector_val@U?$_Simple_types@N@std@@@2@$00@std@@QEAAAEAV?$allocator@N@2@XZ
	?_Get_first@?$_Compressed_pair@V?$allocator@N@std@@V?$_Vector_val@U?$_Simple_types@N@std@@@2@$00@std@@QEBAAEBV?$allocator@N@2@XZ
	?_Get_first@?$_Compressed_pair@V?$allocator@V?$vector@NV?$allocator@N@std@@@std@@@std@@V?$_Vector_val@U?$_Simple_types@V?$vector@NV?$allocator@N@std@@@std@@@std@@@2@$00@std@@QEAAAEAV?$allocator@V?$vector@NV?$allocator@N@std@@@std@@@2@XZ
	?_Get_first@?$_Compressed_pair@V?$allocator@V?$vector@NV?$allocator@N@std@@@std@@@std@@V?$_Vector_val@U?$_Simple_types@V?$vector@NV?$allocator@N@std@@@std@@@std@@@2@$00@std@@QEBAAEBV?$allocator@V?$vector@NV?$allocator@N@std@@@std@@@2@XZ
	?_Get_second@?$_Compressed_pair@V?$allocator@N@std@@V?$_Vector_val@U?$_Simple_types@N@std@@@2@$00@std@@QEAAAEAV?$_Vector_val@U?$_Simple_types@N@std@@@2@XZ
	?_Get_second@?$_Compressed_pair@V?$allocator@N@std@@V?$_Vector_val@U?$_Simple_types@N@std@@@2@$00@std@@QEBAAEBV?$_Vector_val@U?$_Simple_types@N@std@@@2@XZ
	?_Get_second@?$_Compressed_pair@V?$allocator@V?$vector@NV?$allocator@N@std@@@std@@@std@@V?$_Vector_val@U?$_Simple_types@V?$vector@NV?$allocator@N@std@@@std@@@std@@@2@$00@std@@QEAAAEAV?$_Vector_val@U?$_Simple_types@V?$vector@NV?$allocator@N@std@@@std@@@std@@@2@XZ
	?_Get_second@?$_Compressed_pair@V?$allocator@V?$vector@NV?$allocator@N@std@@@std@@@std@@V?$_Vector_val@U?$_Simple_types@V?$vector@NV?$allocator@N@std@@@std@@@std@@@2@$00@std@@QEBAAEBV?$_Vector_val@U?$_Simple_types@V?$vector@NV?$allocator@N@std@@@std@@@std@@@2@XZ
	?_Getal@?$_Vector_alloc@U?$_Vec_base_types@NV?$allocator@N@std@@@std@@@std@@QEAAAEAV?$allocator@N@2@XZ
	?_Getal@?$_Vector_alloc@U?$_Vec_base_types@NV?$allocator@N@std@@@std@@@std@@QEBAAEBV?$allocator@N@2@XZ
	?_Getal@?$_Vector_alloc@U?$_Vec_base_types@V?$vector@NV?$allocator@N@std@@@std@@V?$allocator@V?$vector@NV?$allocator@N@std@@@std@@@2@@std@@@std@@QEAAAEAV?$allocator@V?$vector@NV?$allocator@N@std@@@std@@@2@XZ
	?_Getal@?$_Vector_alloc@U?$_Vec_base_types@V?$vector@NV?$allocator@N@std@@@std@@V?$allocator@V?$vector@NV?$allocator@N@std@@@std@@@2@@std@@@std@@QEBAAEBV?$allocator@V?$vector@NV?$allocator@N@std@@@std@@@2@XZ
	?_Getpfirst@?$_Vector_alloc@U?$_Vec_base_types@NV?$allocator@N@std@@@std@@@std@@QEBAPEAPEAU_Iterator_base12@2@XZ
	?_Getpfirst@?$_Vector_alloc@U?$_Vec_base_types@V?$vector@NV?$allocator@N@std@@@std@@V?$allocator@V?$vector@NV?$allocator@N@std@@@std@@@2@@std@@@std@@QEBAPEAPEAU_Iterator_base12@2@XZ
	?_Getpfirst@_Container_base12@std@@QEBAPEAPEAU_Iterator_base12@2@XZ
	?_Getpnext@_Iterator_base12@std@@QEAAPEAPEAU12@XZ
	?_Has_unused_capacity@?$vector@NV?$allocator@N@std@@@std@@AEBA_NXZ
	?_Has_unused_capacity@?$vector@V?$vector@NV?$allocator@N@std@@@std@@V?$allocator@V?$vector@NV?$allocator@N@std@@@std@@@2@@std@@AEBA_NXZ
	?_Move_from@?$vector@NV?$allocator@N@std@@@std@@AEAAX$$QEAV12@U?$integral_constant@_N$00@2@@Z
	?_Move_from@?$vector@V?$vector@NV?$allocator@N@std@@@std@@V?$allocator@V?$vector@NV?$allocator@N@std@@@std@@@2@@std@@AEAAX$$QEAV12@U?$integral_constant@_N$00@2@@Z
	?_Myend@?$_Vector_alloc@U?$_Vec_base_types@NV?$allocator@N@std@@@std@@@std@@QEAAAEAPEANXZ
	?_Myend@?$_Vector_alloc@U?$_Vec_base_types@NV?$allocator@N@std@@@std@@@std@@QEBAAEBQEANXZ
	?_Myend@?$_Vector_alloc@U?$_Vec_base_types@V?$vector@NV?$allocator@N@std@@@std@@V?$allocator@V?$vector@NV?$allocator@N@std@@@std@@@2@@std@@@std@@QEAAAEAPEAV?$vector@NV?$allocator@N@std@@@2@XZ
	?_Myend@?$_Vector_alloc@U?$_Vec_base_types@V?$vector@NV?$allocator@N@std@@@std@@V?$allocator@V?$vector@NV?$allocator@N@std@@@std@@@2@@std@@@std@@QEBAAEBQEAV?$vector@NV?$allocator@N@std@@@2@XZ
	?_Myfirst@?$_Vector_alloc@U?$_Vec_base_types@NV?$allocator@N@std@@@std@@@std@@QEAAAEAPEANXZ
	?_Myfirst@?$_Vector_alloc@U?$_Vec_base_types@NV?$allocator@N@std@@@std@@@std@@QEBAAEBQEANXZ
	?_Myfirst@?$_Vector_alloc@U?$_Vec_base_types@V?$vector@NV?$allocator@N@std@@@std@@V?$allocator@V?$vector@NV?$allocator@N@std@@@std@@@2@@std@@@std@@QEAAAEAPEAV?$vector@NV?$allocator@N@std@@@2@XZ
	?_Myfirst@?$_Vector_alloc@U?$_Vec_base_types@V?$vector@NV?$allocator@N@std@@@std@@V?$allocator@V?$vector@NV?$allocator@N@std@@@std@@@2@@std@@@std@@QEBAAEBQEAV?$vector@NV?$allocator@N@std@@@2@XZ
	?_Mylast@?$_Vector_alloc@U?$_Vec_base_types@NV?$allocator@N@std@@@std@@@std@@QEAAAEAPEANXZ
	?_Mylast@?$_Vector_alloc@U?$_Vec_base_types@NV?$allocator@N@std@@@std@@@std@@QEBAAEBQEANXZ
	?_Mylast@?$_Vector_alloc@U?$_Vec_base_types@V?$vector@NV?$allocator@N@std@@@std@@V?$allocator@V?$vector@NV?$allocator@N@std@@@std@@@2@@std@@@std@@QEAAAEAPEAV?$vector@NV?$allocator@N@std@@@2@XZ
	?_Mylast@?$_Vector_alloc@U?$_Vec_base_types@V?$vector@NV?$allocator@N@std@@@std@@V?$allocator@V?$vector@NV?$allocator@N@std@@@std@@@2@@std@@@std@@QEBAAEBQEAV?$vector@NV?$allocator@N@std@@@2@XZ
	?_Myproxy@?$_Vector_alloc@U?$_Vec_base_types@NV?$allocator@N@std@@@std@@@std@@QEAAAEAPEAU_Container_proxy@2@XZ
	?_Myproxy@?$_Vector_alloc@U?$_Vec_base_types@V?$vector@NV?$allocator@N@std@@@std@@V?$allocator@V?$vector@NV?$allocator@N@std@@@std@@@2@@std@@@std@@QEAAAEAPEAU_Container_proxy@2@XZ
	?_Orphan_all@?$_Vector_alloc@U?$_Vec_base_types@NV?$allocator@N@std@@@std@@@std@@QEAAXXZ
	?_Orphan_all@?$_Vector_alloc@U?$_Vec_base_types@V?$vector@NV?$allocator@N@std@@@std@@V?$allocator@V?$vector@NV?$allocator@N@std@@@std@@@2@@std@@@std@@QEAAXXZ
	?_Orphan_all@_Container_base12@std@@QEAAXXZ
	?_Orphan_range@?$vector@NV?$allocator@N@std@@@std@@AEBAXPEAN0@Z
	?_Orphan_range@?$vector@V?$vector@NV?$allocator@N@std@@@std@@V?$allocator@V?$vector@NV?$allocator@N@std@@@std@@@2@@std@@AEBAXPEAV?$vector@NV?$allocator@N@std@@@2@0@Z
	?_Swap_all@?$_Vector_alloc@U?$_Vec_base_types@NV?$allocator@N@std@@@std@@@std@@QEAAXAEAV12@@Z
	?_Swap_all@?$_Vector_alloc@U?$_Vec_base_types@V?$vector@NV?$allocator@N@std@@@std@@V?$allocator@V?$vector@NV?$allocator@N@std@@@std@@@2@@std@@@std@@QEAAXAEAV12@@Z
	?_Swap_all@_Container_base12@std@@QEAAXAEAU12@@Z
	?_Tidy@?$vector@NV?$allocator@N@std@@@std@@AEAAXXZ
	?_Tidy@?$vector@V?$vector@NV?$allocator@N@std@@@std@@V?$allocator@V?$vector@NV?$allocator@N@std@@@std@@@2@@std@@AEAAXXZ
	?_Udefault@?$vector@NV?$allocator@N@std@@@std@@AEAAPEANPEAN_K@Z
	?_Ufill@?$vector@V?$vector@NV?$allocator@N@std@@@std@@V?$allocator@V?$vector@NV?$allocator@N@std@@@std@@@2@@std@@AEAAPEAV?$vector@NV?$allocator@N@std@@@2@PEAV32@_KAEBV32@@Z
	?_Umove_if_noexcept1@?$vector@NV?$allocator@N@std@@@std@@AEAAXPEAN00U?$integral_constant@_N$00@2@@Z
	?_Umove_if_noexcept1@?$vector@V?$vector@NV?$allocator@N@std@@@std@@V?$allocator@V?$vector@NV?$allocator@N@std@@@std@@@2@@std@@AEAAXPEAV?$vector@NV?$allocator@N@std@@@2@00U?$integral_constant@_N$00@2@@Z
	?_Umove_if_noexcept@?$vector@NV?$allocator@N@std@@@std@@AEAAXPEAN00@Z
	?_Umove_if_noexcept@?$vector@V?$vector@NV?$allocator@N@std@@@std@@V?$allocator@V?$vector@NV?$allocator@N@std@@@std@@@2@@std@@AEAAXPEAV?$vector@NV?$allocator@N@std@@@2@00@Z
	?_Unchecked_begin@?$vector@NV?$allocator@N@std@@@std@@QEAAPEANXZ
	?_Unchecked_begin@?$vector@NV?$allocator@N@std@@@std@@QEBAPEBNXZ
	?_Unchecked_begin@?$vector@V?$vector@NV?$allocator@N@std@@@std@@V?$allocator@V?$vector@NV?$allocator@N@std@@@std@@@2@@std@@QEAAPEAV?$vector@NV?$allocator@N@std@@@2@XZ
	?_Unchecked_begin@?$vector@V?$vector@NV?$allocator@N@std@@@std@@V?$allocator@V?$vector@NV?$allocator@N@std@@@std@@@2@@std@@QEBAPEBV?$vector@NV?$allocator@N@std@@@2@XZ
	?_Unchecked_end@?$vector@NV?$allocator@N@std@@@std@@QEAAPEANXZ
	?_Unchecked_end@?$vector@NV?$allocator@N@std@@@std@@QEBAPEBNXZ
	?_Unchecked_end@?$vector@V?$vector@NV?$allocator@N@std@@@std@@V?$allocator@V?$vector@NV?$allocator@N@std@@@std@@@2@@std@@QEAAPEAV?$vector@NV?$allocator@N@std@@@2@XZ
	?_Unchecked_end@?$vector@V?$vector@NV?$allocator@N@std@@@std@@V?$allocator@V?$vector@NV?$allocator@N@std@@@std@@@2@@std@@QEBAPEBV?$vector@NV?$allocator@N@std@@@2@XZ
	?_Xlength@?$vector@NV?$allocator@N@std@@@std@@CAXXZ
	?_Xlength@?$vector@V?$vector@NV?$allocator@N@std@@@std@@V?$allocator@V?$vector@NV?$allocator@N@std@@@std@@@2@@std@@CAXXZ
	?_Xrange@?$vector@NV?$allocator@N@std@@@std@@CAXXZ
	?_Xrange@?$vector@V?$vector@NV?$allocator@N@std@@@std@@V?$allocator@V?$vector@NV?$allocator@N@std@@@std@@@2@@std@@CAXXZ
	?__empty_global_delete@@YAXPEAX@Z
	?__empty_global_delete@@YAXPEAX_K@Z
	?allocate@?$allocator@N@std@@QEAAPEAN_K@Z
	?allocate@?$allocator@U_Container_proxy@std@@@std@@QEAAPEAU_Container_proxy@2@_K@Z
	?allocate@?$allocator@V?$vector@NV?$allocator@N@std@@@std@@@std@@QEAAPEAV?$vector@NV?$allocator@N@std@@@2@_K@Z
	?at@?$vector@NV?$allocator@N@std@@@std@@QEAAAEAN_K@Z
	?at@?$vector@NV?$allocator@N@std@@@std@@QEBAAEBN_K@Z
	?at@?$vector@V?$vector@NV?$allocator@N@std@@@std@@V?$allocator@V?$vector@NV?$allocator@N@std@@@std@@@2@@std@@QEAAAEAV?$vector@NV?$allocator@N@std@@@2@_K@Z
	?at@?$vector@V?$vector@NV?$allocator@N@std@@@std@@V?$allocator@V?$vector@NV?$allocator@N@std@@@std@@@2@@std@@QEBAAEBV?$vector@NV?$allocator@N@std@@@2@_K@Z
	?back@?$vector@NV?$allocator@N@std@@@std@@QEBAAEBNXZ
	?back@?$vector@V?$vector@NV?$allocator@N@std@@@std@@V?$allocator@V?$vector@NV?$allocator@N@std@@@std@@@2@@std@@QEBAAEBV?$vector@NV?$allocator@N@std@@@2@XZ
	?capacity@?$vector@NV?$allocator@N@std@@@std@@QEBA_KXZ
	?capacity@?$vector@V?$vector@NV?$allocator@N@std@@@std@@V?$allocator@V?$vector@NV?$allocator@N@std@@@std@@@2@@std@@QEBA_KXZ
	?deallocate@?$_Default_allocator_traits@V?$allocator@U_Container_proxy@std@@@std@@@std@@SAXAEAV?$allocator@U_Container_proxy@std@@@2@QEAU_Container_proxy@2@_K@Z
	?deallocate@?$allocator@N@std@@QEAAXQEAN_K@Z
	?deallocate@?$allocator@V?$vector@NV?$allocator@N@std@@@std@@@std@@QEAAXQEAV?$vector@NV?$allocator@N@std@@@2@_K@Z
	?empty@?$vector@NV?$allocator@N@std@@@std@@QEBA_NXZ
	?empty@?$vector@V?$vector@NV?$allocator@N@std@@@std@@V?$allocator@V?$vector@NV?$allocator@N@std@@@std@@@2@@std@@QEBA_NXZ
	?eof@?$char_traits@D@std@@SAHXZ
	?eq_int_type@?$char_traits@D@std@@SA_NAEBH0@Z
	?front@?$vector@NV?$allocator@N@std@@@std@@QEBAAEBNXZ
	?front@?$vector@V?$vector@NV?$allocator@N@std@@@std@@V?$allocator@V?$vector@NV?$allocator@N@std@@@std@@@2@@std@@QEAAAEAV?$vector@NV?$allocator@N@std@@@2@XZ
	?front@?$vector@V?$vector@NV?$allocator@N@std@@@std@@V?$allocator@V?$vector@NV?$allocator@N@std@@@std@@@2@@std@@QEBAAEBV?$vector@NV?$allocator@N@std@@@2@XZ
	?max@?$numeric_limits@_J@std@@SA_JXZ
	?max_size@?$_Default_allocator_traits@V?$allocator@N@std@@@std@@SA_KAEBV?$allocator@N@2@@Z
	?max_size@?$_Default_allocator_traits@V?$allocator@V?$vector@NV?$allocator@N@std@@@std@@@std@@@std@@SA_KAEBV?$allocator@V?$vector@NV?$allocator@N@std@@@std@@@2@@Z
	?max_size@?$vector@NV?$allocator@N@std@@@std@@QEBA_KXZ
	?max_size@?$vector@V?$vector@NV?$allocator@N@std@@@std@@V?$allocator@V?$vector@NV?$allocator@N@std@@@std@@@2@@std@@QEBA_KXZ
	?push_back@?$vector@NV?$allocator@N@std@@@std@@QEAAXAEBN@Z
	?resize@?$vector@V?$vector@NV?$allocator@N@std@@@std@@V?$allocator@V?$vector@NV?$allocator@N@std@@@std@@@2@@std@@QEAAX_KAEBV?$vector@NV?$allocator@N@std@@@2@@Z
	?select_on_container_copy_construction@?$_Default_allocator_traits@V?$allocator@N@std@@@std@@SA?AV?$allocator@N@2@AEBV32@@Z
	?size@?$vector@NV?$allocator@N@std@@@std@@QEBA_KXZ
	?size@?$vector@V?$vector@NV?$allocator@N@std@@@std@@V?$allocator@V?$vector@NV?$allocator@N@std@@@std@@@2@@std@@QEBA_KXZ
